target datalayout = "e-m:e-p270:32:32-p271:32:32-p272:64:64-i64:64-i128:128-f80:128-n8:16:32:64-S128"
target triple = "x86_64-pc-linux-gnu"

%struct.slurmctld_resv = type { i16, ptr, i32, ptr, ptr, i32, ptr, ptr, i32, ptr, i32, ptr, i32, i64, i64, ptr, i64, ptr, ptr, i32, i32, ptr, ptr, i32, ptr, ptr, i32, ptr, ptr, ptr, i32, i32, i64, i64, i64, i64, ptr, ptr, ptr, i32, ptr }

@.str.113 = private unnamed_addr constant [2 x i8] c",\00", align 1
@.str.144 = private unnamed_addr constant [1 x i8] zeroinitializer, align 1
@.str.145 = private unnamed_addr constant [5 x i8] c"%s%s\00", align 1

; Function Attrs: nounwind uwtable
define internal i32 @_update_job_resv_list_str(ptr noundef %0, ptr noundef %1) #0 {
  %3 = alloca ptr, align 8
  %4 = alloca ptr, align 8
  %5 = alloca ptr, align 8
  %6 = alloca ptr, align 8
  store ptr %0, ptr %3, align 8
  store ptr %1, ptr %4, align 8
  call void @llvm.lifetime.start.p0(i64 8, ptr %5) #10
  %7 = load ptr, ptr %3, align 8
  store ptr %7, ptr %5, align 8
  call void @llvm.lifetime.start.p0(i64 8, ptr %6) #10
  %8 = load ptr, ptr %4, align 8
  store ptr %8, ptr %6, align 8
  %9 = load ptr, ptr %6, align 8
  %10 = load ptr, ptr %6, align 8
  %11 = load ptr, ptr %10, align 8
  %12 = icmp ne ptr %11, null
  %13 = select i1 %12, ptr @.str.113, ptr @.str.144
  %14 = load ptr, ptr %5, align 8
  %15 = getelementptr inbounds nuw %struct.slurmctld_resv, ptr %14, i32 0, i32 24
  %16 = load ptr, ptr %15, align 8
  call void (ptr, ptr, ...) @_xstrfmtcat(ptr noundef %9, ptr noundef @.str.145, ptr noundef %13, ptr noundef %16)
  call void @llvm.lifetime.end.p0(i64 8, ptr %6) #10
  call void @llvm.lifetime.end.p0(i64 8, ptr %5) #10
  ret i32 0
}